; Function Attrs: mustprogress uwtable
define void @_ZNK5boost3log11v2_mt_posix4core21get_global_attributesEv(ptr dead_on_unwind noalias writable sret(%"class.boost::log::v2_mt_posix::attribute_set") align 8 %0, ptr nocapture noundef nonnull readonly align 8 dereferenceable(8) %1) local_unnamed_addr #4 align 2 personality ptr @__gxx_personality_v0 {
  %3 = load ptr, ptr %1, align 8, !tbaa !33
  %4 = tail call i32 @pthread_rwlock_rdlock(ptr noundef nonnull align 8 dereferenceable(56) %3) #21
  %5 = load ptr, ptr %1, align 8, !tbaa !33
  %6 = getelementptr inbounds nuw i8, ptr %5, i64 96
  invoke void @_ZN5boost3log11v2_mt_posix13attribute_setC1ERKS2_(ptr noundef nonnull align 8 dereferenceable(8) %0, ptr noundef nonnull align 8 dereferenceable(8) %6)
          to label %7 unwind label %9

7:                                                ; preds = %2
  %8 = tail call i32 @pthread_rwlock_unlock(ptr noundef nonnull align 8 dereferenceable(56) %3) #21
  ret void

9:                                                ; preds = %2
  %10 = landingpad { ptr, i32 }
          cleanup
  %11 = tail call i32 @pthread_rwlock_unlock(ptr noundef nonnull align 8 dereferenceable(56) %3) #21
  resume { ptr, i32 } %10
}